; Function Attrs: mustprogress uwtable
define hidden void @_ZN3ue218UTF8ComponentClassC2ERKNS_9ParseModeE(ptr noundef nonnull align 8 dereferenceable(208) %this, ptr noundef nonnull align 1 dereferenceable(6) %mode_in) unnamed_addr #1 align 2 personality ptr @__gxx_personality_v0 {
invoke.cont:
  tail call void @_ZN3ue214ComponentClassC2ERKNS_9ParseModeE(ptr noundef nonnull align 8 dereferenceable(29) %this, ptr noundef nonnull align 1 dereferenceable(6) %mode_in)
  store ptr getelementptr inbounds ({ [22 x ptr] }, ptr @_ZTVN3ue218UTF8ComponentClassE, i64 0, i32 0, i64 2), ptr %this, align 8
  %0 = getelementptr inbounds i8, ptr %this, i64 40
  store i32 0, ptr %0, align 8
  %_M_parent.i.i.i.i.i.i.i.i = getelementptr inbounds i8, ptr %this, i64 48
  store ptr null, ptr %_M_parent.i.i.i.i.i.i.i.i, align 8
  %_M_left.i.i.i.i.i.i.i.i = getelementptr inbounds i8, ptr %this, i64 56
  store ptr %0, ptr %_M_left.i.i.i.i.i.i.i.i, align 8
  %_M_right.i.i.i.i.i.i.i.i = getelementptr inbounds i8, ptr %this, i64 64
  store ptr %0, ptr %_M_right.i.i.i.i.i.i.i.i, align 8
  %_M_node_count.i.i.i.i.i.i.i.i = getelementptr inbounds i8, ptr %this, i64 72
  store i64 0, ptr %_M_node_count.i.i.i.i.i.i.i.i, align 8
  %1 = getelementptr inbounds i8, ptr %this, i64 88
  store i32 0, ptr %1, align 8
  %_M_parent.i.i.i.i.i = getelementptr inbounds i8, ptr %this, i64 96
  store ptr null, ptr %_M_parent.i.i.i.i.i, align 8
  %_M_left.i.i.i.i.i = getelementptr inbounds i8, ptr %this, i64 104
  store ptr %1, ptr %_M_left.i.i.i.i.i, align 8
  %_M_right.i.i.i.i.i = getelementptr inbounds i8, ptr %this, i64 112
  store ptr %1, ptr %_M_right.i.i.i.i.i, align 8
  %_M_node_count.i.i.i.i.i = getelementptr inbounds i8, ptr %this, i64 120
  store i64 0, ptr %_M_node_count.i.i.i.i.i, align 8
  %single_pos = getelementptr inbounds i8, ptr %this, i64 128
  %2 = load i32, ptr @_ZN3ue218GlushkovBuildState17POS_UNINITIALIZEDE, align 4
  %3 = insertelement <4 x i32> poison, i32 %2, i64 0
  %4 = shufflevector <4 x i32> %3, <4 x i32> poison, <4 x i32> zeroinitializer
  store <4 x i32> %4, ptr %single_pos, align 8
  %two_char_dot_head = getelementptr inbounds i8, ptr %this, i64 144
  store i32 %2, ptr %two_char_dot_head, align 8
  %three_char_dot_head = getelementptr inbounds i8, ptr %this, i64 148
  store i32 %2, ptr %three_char_dot_head, align 4
  %four_char_dot_head = getelementptr inbounds i8, ptr %this, i64 152
  store i32 %2, ptr %four_char_dot_head, align 8
  %5 = getelementptr inbounds i8, ptr %this, i64 168
  store i32 0, ptr %5, align 8
  %_M_parent.i.i.i.i.i1 = getelementptr inbounds i8, ptr %this, i64 176
  store ptr null, ptr %_M_parent.i.i.i.i.i1, align 8
  %_M_left.i.i.i.i.i2 = getelementptr inbounds i8, ptr %this, i64 184
  store ptr %5, ptr %_M_left.i.i.i.i.i2, align 8
  %_M_right.i.i.i.i.i3 = getelementptr inbounds i8, ptr %this, i64 192
  store ptr %5, ptr %_M_right.i.i.i.i.i3, align 8
  %_M_node_count.i.i.i.i.i4 = getelementptr inbounds i8, ptr %this, i64 200
  store i64 0, ptr %_M_node_count.i.i.i.i.i4, align 8
  ret void
}